target datalayout = "e-m:e-p270:32:32-p271:32:32-p272:64:64-i64:64-i128:128-f80:128-n8:16:32:64-S128"
target triple = "x86_64-pc-linux-gnu"

%struct.GCRef = type { i64 }
%struct.jit_State = type { %struct.GCtrace, ptr, ptr, ptr, ptr, ptr, ptr, i32, i32, i32, i8, i8, %struct.IRType1, i8, %struct.FoldState, ptr, i32, i32, i32, i32, i32, i32, i32, [1 x i32], [5 x %union.TValue], [3 x %union.TValue], ptr, i32, i32, i32, i32, ptr, ptr, i32, i32, i8, ptr, i32, i32, i16, [101 x i16], [258 x i32], [15 x i32], [16 x ptr], [64 x %struct.HotPenalty], i32, [16 x %struct.BPropEntry], i32, %struct.ScEvEntry, ptr, i32, i32, i32, ptr, i32, i32, ptr, ptr, ptr, i64, i64, %union.TValue, ptr, i32, i32 }
%struct.GCtrace = type { %struct.GCRef, i8, i8, i16, i32, i32, %struct.GCRef, ptr, i32, i32, ptr, ptr, %struct.GCRef, %struct.MRef, i32, i32, ptr, i32, i16, i16, i16, i16, i16, i16, i16, i8, i8, i8, i8 }
%struct.MRef = type { i64 }
%struct.IRType1 = type { i8 }
%struct.FoldState = type { %union.IRIns, [2 x %union.IRIns], [2 x %union.IRIns] }
%union.IRIns = type { %struct.GCRef }
%struct.HotPenalty = type { %struct.MRef, i16, i16 }
%struct.BPropEntry = type { i16, i16, i32 }
%struct.ScEvEntry = type { %struct.MRef, i16, i16, i16, i16, %struct.IRType1, i8 }
%union.TValue = type { i64 }
%struct.anon.2 = type { i16, i16, i16, i16 }

; Function Attrs: alwaysinline nounwind uwtable
define internal void @lj_ir_set_(ptr noundef %0, i16 noundef zeroext %1, i16 noundef zeroext %2, i16 noundef zeroext %3) #1 {
  %5 = alloca ptr, align 8
  %6 = alloca i16, align 2
  %7 = alloca i16, align 2
  %8 = alloca i16, align 2
  store ptr %0, ptr %5, align 8, !tbaa !4
  store i16 %1, ptr %6, align 2, !tbaa !14
  store i16 %2, ptr %7, align 2, !tbaa !14
  store i16 %3, ptr %8, align 2, !tbaa !14
  %9 = load i16, ptr %6, align 2, !tbaa !14
  %10 = load ptr, ptr %5, align 8, !tbaa !4
  %11 = getelementptr inbounds nuw %struct.jit_State, ptr %10, i32 0, i32 14
  %12 = getelementptr inbounds nuw %struct.FoldState, ptr %11, i32 0, i32 0
  %13 = getelementptr inbounds nuw %struct.anon.2, ptr %12, i32 0, i32 2
  store i16 %9, ptr %13, align 4, !tbaa !13
  %14 = load i16, ptr %7, align 2, !tbaa !14
  %15 = load ptr, ptr %5, align 8, !tbaa !4
  %16 = getelementptr inbounds nuw %struct.jit_State, ptr %15, i32 0, i32 14
  %17 = getelementptr inbounds nuw %struct.FoldState, ptr %16, i32 0, i32 0
  %18 = getelementptr inbounds nuw %struct.anon.2, ptr %17, i32 0, i32 0
  store i16 %14, ptr %18, align 8, !tbaa !13
  %19 = load i16, ptr %8, align 2, !tbaa !14
  %20 = load ptr, ptr %5, align 8, !tbaa !4
  %21 = getelementptr inbounds nuw %struct.jit_State, ptr %20, i32 0, i32 14
  %22 = getelementptr inbounds nuw %struct.FoldState, ptr %21, i32 0, i32 0
  %23 = getelementptr inbounds nuw %struct.anon.2, ptr %22, i32 0, i32 1
  store i16 %19, ptr %23, align 2, !tbaa !13
  ret void
}

; Function Attrs: nounwind uwtable
define internal void @recff_getfenv(ptr noundef %0, ptr noundef %1) #0 {
  %3 = alloca ptr, align 8
  %4 = alloca ptr, align 8
  %5 = alloca i32, align 4
  %6 = alloca i32, align 4
  %7 = alloca i32, align 4
  store ptr %0, ptr %3, align 8, !tbaa !4
  store ptr %1, ptr %4, align 8, !tbaa !46
  call void @llvm.lifetime.start.p0(i64 4, ptr %5) #9
  %8 = load ptr, ptr %3, align 8, !tbaa !4
  %9 = getelementptr inbounds nuw %struct.jit_State, ptr %8, i32 0, i32 6
  %10 = load ptr, ptr %9, align 8, !tbaa !41
  %11 = getelementptr inbounds i32, ptr %10, i64 0
  %12 = load i32, ptr %11, align 4, !tbaa !9
  store i32 %12, ptr %5, align 4, !tbaa !9
  %13 = load i32, ptr %5, align 4, !tbaa !9
  %14 = and i32 %13, 520093696
  %15 = icmp eq i32 %14, 318767104
  br i1 %15, label %16, label %45

16:                                               ; preds = %2
  %17 = load i32, ptr %5, align 4, !tbaa !9
  %18 = trunc i32 %17 to i16
  %19 = zext i16 %18 to i32
  %20 = icmp slt i32 %19, 32768
  br i1 %20, label %21, label %45

21:                                               ; preds = %16
  %22 = load ptr, ptr %3, align 8, !tbaa !4
  %23 = getelementptr inbounds nuw %struct.jit_State, ptr %22, i32 0, i32 0
  %24 = getelementptr inbounds nuw %struct.GCtrace, ptr %23, i32 0, i32 7
  %25 = load ptr, ptr %24, align 8, !tbaa !59
  %26 = load i32, ptr %5, align 4, !tbaa !9
  %27 = trunc i32 %26 to i16
  %28 = zext i16 %27 to i64
  %29 = getelementptr inbounds nuw %union.IRIns, ptr %25, i64 %28
  %30 = load i32, ptr %29, align 8, !tbaa !13
  %31 = icmp eq i32 %30, 0
  br i1 %31, label %32, label %45

32:                                               ; preds = %21
  call void @llvm.lifetime.start.p0(i64 4, ptr %6) #9
  %33 = load ptr, ptr %3, align 8, !tbaa !4
  call void @lj_ir_set_(ptr noundef %33, i16 noundef zeroext 16646, i16 noundef zeroext 0, i16 noundef zeroext 0)
  %34 = load ptr, ptr %3, align 8, !tbaa !4
  %35 = call i32 @lj_opt_fold(ptr noundef %34)
  store i32 %35, ptr %6, align 4, !tbaa !9
  %36 = load ptr, ptr %3, align 8, !tbaa !4
  %37 = load i32, ptr %6, align 4, !tbaa !9
  %38 = trunc i32 %37 to i16
  call void @lj_ir_set_(ptr noundef %36, i16 noundef zeroext 17675, i16 noundef zeroext %38, i16 noundef zeroext 4)
  %39 = load ptr, ptr %3, align 8, !tbaa !4
  %40 = call i32 @lj_opt_fold(ptr noundef %39)
  %41 = load ptr, ptr %3, align 8, !tbaa !4
  %42 = getelementptr inbounds nuw %struct.jit_State, ptr %41, i32 0, i32 6
  %43 = load ptr, ptr %42, align 8, !tbaa !41
  %44 = getelementptr inbounds i32, ptr %43, i64 0
  store i32 %40, ptr %44, align 4, !tbaa !9
  store i32 1, ptr %7, align 4
  call void @llvm.lifetime.end.p0(i64 4, ptr %6) #9
  br label %48

45:                                               ; preds = %21, %16, %2
  %46 = load ptr, ptr %3, align 8, !tbaa !4
  %47 = load ptr, ptr %4, align 8, !tbaa !46
  call void @recff_nyi(ptr noundef %46, ptr noundef %47)
  store i32 0, ptr %7, align 4
  br label %48

48:                                               ; preds = %45, %32
  call void @llvm.lifetime.end.p0(i64 4, ptr %5) #9
  %49 = load i32, ptr %7, align 4
  switch i32 %49, label %51 [
    i32 0, label %50
    i32 1, label %50
  ]

50:                                               ; preds = %48, %48
  ret void

51:                                               ; preds = %48
  unreachable
}