; Function Attrs: nounwind uwtable
define internal void @recff_getfenv(ptr noundef %0, ptr noundef writeonly captures(none) %1) #0 {
  %3 = getelementptr inbounds nuw i8, ptr %0, i64 160
  %4 = load ptr, ptr %3, align 8, !tbaa !37
  %5 = load i32, ptr %4, align 4, !tbaa !39
  %6 = and i32 %5, 520126464
  %or.cond = icmp eq i32 %6, 318767104
  br i1 %or.cond, label %7, label %23

7:                                                ; preds = %2
  %8 = getelementptr inbounds nuw i8, ptr %0, i64 32
  %9 = load ptr, ptr %8, align 8, !tbaa !55
  %10 = and i32 %5, 32767
  %11 = zext nneg i32 %10 to i64
  %12 = getelementptr inbounds nuw %union.IRIns, ptr %9, i64 %11
  %13 = load i32, ptr %12, align 8, !tbaa !4
  %14 = icmp eq i32 %13, 0
  br i1 %14, label %15, label %23

15:                                               ; preds = %7
  %16 = getelementptr inbounds nuw i8, ptr %0, i64 184
  %17 = getelementptr inbounds nuw i8, ptr %0, i64 188
  store i16 16646, ptr %17, align 4, !tbaa !4
  store i16 0, ptr %16, align 8, !tbaa !4
  %18 = getelementptr inbounds nuw i8, ptr %0, i64 186
  store i16 0, ptr %18, align 2, !tbaa !4
  %19 = tail call i32 @lj_opt_fold(ptr noundef nonnull %0) #9
  %20 = trunc i32 %19 to i16
  store i16 17675, ptr %17, align 4, !tbaa !4
  store i16 %20, ptr %16, align 8, !tbaa !4
  store i16 4, ptr %18, align 2, !tbaa !4
  %21 = tail call i32 @lj_opt_fold(ptr noundef nonnull %0) #9
  %22 = load ptr, ptr %3, align 8, !tbaa !37
  store i32 %21, ptr %22, align 4, !tbaa !39
  br label %24

23:                                               ; preds = %7, %2
  tail call void @recff_nyi(ptr noundef nonnull %0, ptr noundef %1)
  br label %24

24:                                               ; preds = %23, %15
  ret void
}